target datalayout = "e-m:e-p270:32:32-p271:32:32-p272:64:64-i64:64-i128:128-f80:128-n8:16:32:64-S128"
target triple = "x86_64-pc-linux-gnu"

%struct.CodedBitstreamContext = type { ptr, ptr, ptr, ptr, i32, i32, i32, ptr, ptr, ptr, ptr, i64 }
%struct.APVRawQuantizationMatrix = type { [4 x [8 x [8 x i8]]] }
%struct.CodedBitstreamAPVContext = type { i32, i32, %struct.APVDerivedTileInfo }
%struct.APVDerivedTileInfo = type { i8, i8, i16, [21 x i16], [21 x i16] }

@.str.31 = private unnamed_addr constant [18 x i8] c"q_matrix[c][x][y]\00", align 1

; Function Attrs: nounwind uwtable
define internal i32 @cbs_apv_write_quantization_matrix(ptr noundef %0, ptr noundef %1, ptr noundef %2) #0 {
  %4 = alloca i32, align 4
  %5 = alloca ptr, align 8
  %6 = alloca ptr, align 8
  %7 = alloca ptr, align 8
  %8 = alloca ptr, align 8
  %9 = alloca i32, align 4
  %10 = alloca i32, align 4
  %11 = alloca i32, align 4
  %12 = alloca i32, align 4
  %13 = alloca i32, align 4
  %14 = alloca i32, align 4
  %15 = alloca [4 x i32], align 4
  store ptr %0, ptr %5, align 8, !tbaa !4
  store ptr %1, ptr %6, align 8, !tbaa !50
  store ptr %2, ptr %7, align 8, !tbaa !136
  call void @llvm.lifetime.start.p0(i64 8, ptr %8) #8
  %16 = load ptr, ptr %5, align 8, !tbaa !4
  %17 = getelementptr inbounds nuw %struct.CodedBitstreamContext, ptr %16, i32 0, i32 2
  %18 = load ptr, ptr %17, align 8, !tbaa !82
  store ptr %18, ptr %8, align 8, !tbaa !83
  call void @llvm.lifetime.start.p0(i64 4, ptr %9) #8
  call void @llvm.lifetime.start.p0(i64 4, ptr %10) #8
  store i32 0, ptr %10, align 4, !tbaa !11
  br label %19

19:                                               ; preds = %87, %3
  %20 = load i32, ptr %10, align 4, !tbaa !11
  %21 = load ptr, ptr %8, align 8, !tbaa !83
  %22 = getelementptr inbounds nuw %struct.CodedBitstreamAPVContext, ptr %21, i32 0, i32 1
  %23 = load i32, ptr %22, align 4, !tbaa !114
  %24 = icmp slt i32 %20, %23
  br i1 %24, label %26, label %25

25:                                               ; preds = %19
  store i32 2, ptr %11, align 4
  br label %90

26:                                               ; preds = %19
  call void @llvm.lifetime.start.p0(i64 4, ptr %12) #8
  store i32 0, ptr %12, align 4, !tbaa !11
  br label %27

27:                                               ; preds = %81, %26
  %28 = load i32, ptr %12, align 4, !tbaa !11
  %29 = icmp slt i32 %28, 8
  br i1 %29, label %31, label %30

30:                                               ; preds = %27
  store i32 5, ptr %11, align 4
  br label %84

31:                                               ; preds = %27
  call void @llvm.lifetime.start.p0(i64 4, ptr %13) #8
  store i32 0, ptr %13, align 4, !tbaa !11
  br label %32

32:                                               ; preds = %75, %31
  %33 = load i32, ptr %13, align 4, !tbaa !11
  %34 = icmp slt i32 %33, 8
  br i1 %34, label %36, label %35

35:                                               ; preds = %32
  store i32 8, ptr %11, align 4
  br label %78

36:                                               ; preds = %32
  br label %37

37:                                               ; preds = %36
  call void @llvm.lifetime.start.p0(i64 4, ptr %14) #8
  %38 = load ptr, ptr %7, align 8, !tbaa !136
  %39 = getelementptr inbounds nuw %struct.APVRawQuantizationMatrix, ptr %38, i32 0, i32 0
  %40 = load i32, ptr %10, align 4, !tbaa !11
  %41 = sext i32 %40 to i64
  %42 = getelementptr inbounds [4 x [8 x [8 x i8]]], ptr %39, i64 0, i64 %41
  %43 = load i32, ptr %13, align 4, !tbaa !11
  %44 = sext i32 %43 to i64
  %45 = getelementptr inbounds [8 x [8 x i8]], ptr %42, i64 0, i64 %44
  %46 = load i32, ptr %12, align 4, !tbaa !11
  %47 = sext i32 %46 to i64
  %48 = getelementptr inbounds [8 x i8], ptr %45, i64 0, i64 %47
  %49 = load i8, ptr %48, align 1, !tbaa !26
  %50 = zext i8 %49 to i32
  store i32 %50, ptr %14, align 4, !tbaa !11
  br label %51

51:                                               ; preds = %37
  %52 = load ptr, ptr %5, align 8, !tbaa !4
  %53 = load ptr, ptr %6, align 8, !tbaa !50
  store i32 3, ptr %15, align 4, !tbaa !11
  %54 = getelementptr inbounds i32, ptr %15, i64 1
  %55 = load i32, ptr %10, align 4, !tbaa !11
  store i32 %55, ptr %54, align 4, !tbaa !11
  %56 = getelementptr inbounds i32, ptr %15, i64 2
  %57 = load i32, ptr %13, align 4, !tbaa !11
  store i32 %57, ptr %56, align 4, !tbaa !11
  %58 = getelementptr inbounds i32, ptr %15, i64 3
  %59 = load i32, ptr %12, align 4, !tbaa !11
  store i32 %59, ptr %58, align 4, !tbaa !11
  %60 = getelementptr inbounds [4 x i32], ptr %15, i64 0, i64 0
  %61 = load i32, ptr %14, align 4, !tbaa !11
  %62 = call i32 @ff_cbs_write_unsigned(ptr noundef %52, ptr noundef %53, i32 noundef 8, ptr noundef @.str.31, ptr noundef %60, i32 noundef %61, i32 noundef 1, i32 noundef 255)
  store i32 %62, ptr %9, align 4, !tbaa !11
  %63 = load i32, ptr %9, align 4, !tbaa !11
  %64 = icmp slt i32 %63, 0
  br i1 %64, label %65, label %67

65:                                               ; preds = %51
  %66 = load i32, ptr %9, align 4, !tbaa !11
  store i32 %66, ptr %4, align 4
  store i32 1, ptr %11, align 4
  br label %70

67:                                               ; preds = %51
  br label %68

68:                                               ; preds = %67
  br label %69

69:                                               ; preds = %68
  store i32 0, ptr %11, align 4
  br label %70

70:                                               ; preds = %69, %65
  call void @llvm.lifetime.end.p0(i64 4, ptr %14) #8
  %71 = load i32, ptr %11, align 4
  switch i32 %71, label %78 [
    i32 0, label %72
  ]

72:                                               ; preds = %70
  br label %73

73:                                               ; preds = %72
  br label %74

74:                                               ; preds = %73
  br label %75

75:                                               ; preds = %74
  %76 = load i32, ptr %13, align 4, !tbaa !11
  %77 = add nsw i32 %76, 1
  store i32 %77, ptr %13, align 4, !tbaa !11
  br label %32, !llvm.loop !220

78:                                               ; preds = %70, %35
  call void @llvm.lifetime.end.p0(i64 4, ptr %13) #8
  %79 = load i32, ptr %11, align 4
  switch i32 %79, label %84 [
    i32 8, label %80
  ]

80:                                               ; preds = %78
  br label %81

81:                                               ; preds = %80
  %82 = load i32, ptr %12, align 4, !tbaa !11
  %83 = add nsw i32 %82, 1
  store i32 %83, ptr %12, align 4, !tbaa !11
  br label %27, !llvm.loop !221

84:                                               ; preds = %78, %30
  call void @llvm.lifetime.end.p0(i64 4, ptr %12) #8
  %85 = load i32, ptr %11, align 4
  switch i32 %85, label %90 [
    i32 5, label %86
  ]

86:                                               ; preds = %84
  br label %87

87:                                               ; preds = %86
  %88 = load i32, ptr %10, align 4, !tbaa !11
  %89 = add nsw i32 %88, 1
  store i32 %89, ptr %10, align 4, !tbaa !11
  br label %19, !llvm.loop !222

90:                                               ; preds = %84, %25
  call void @llvm.lifetime.end.p0(i64 4, ptr %10) #8
  %91 = load i32, ptr %11, align 4
  switch i32 %91, label %93 [
    i32 2, label %92
  ]

92:                                               ; preds = %90
  store i32 0, ptr %4, align 4
  store i32 1, ptr %11, align 4
  br label %93

93:                                               ; preds = %92, %90
  call void @llvm.lifetime.end.p0(i64 4, ptr %9) #8
  call void @llvm.lifetime.end.p0(i64 8, ptr %8) #8
  %94 = load i32, ptr %4, align 4
  ret i32 %94
}