; Function Attrs: nounwind uwtable
define internal fastcc range(i32 -2147483648, 1) i32 @cbs_apv_write_quantization_matrix(ptr noundef %0, ptr noundef %1, ptr noundef readonly captures(none) %2) unnamed_addr #0 {
  %4 = alloca [4 x i32], align 4
  %5 = getelementptr inbounds nuw i8, ptr %0, i64 16
  %6 = load ptr, ptr %5, align 8, !tbaa !34
  %7 = getelementptr inbounds nuw i8, ptr %6, i64 4
  %8 = load i32, ptr %7, align 4, !tbaa !55
  %.not44 = icmp sgt i32 %8, 0
  br i1 %.not44, label %.preheader40.lr.ph, label %.loopexit

.preheader40.lr.ph:                               ; preds = %3
  %9 = getelementptr inbounds nuw i8, ptr %4, i64 4
  %10 = getelementptr inbounds nuw i8, ptr %4, i64 8
  %11 = getelementptr inbounds nuw i8, ptr %4, i64 12
  br label %.preheader40

.preheader40:                                     ; preds = %.preheader40.lr.ph, %.thread37
  %indvars.iv53 = phi i64 [ 0, %.preheader40.lr.ph ], [ %indvars.iv.next54, %.thread37 ]
  %12 = trunc nuw nsw i64 %indvars.iv53 to i32
  br label %.preheader

.preheader:                                       ; preds = %.preheader40, %22
  %indvars.iv49 = phi i64 [ 0, %.preheader40 ], [ %indvars.iv.next50, %22 ]
  %13 = trunc nuw nsw i64 %indvars.iv49 to i32
  br label %15

14:                                               ; preds = %15
  %indvars.iv.next = add nuw nsw i64 %indvars.iv, 1
  %exitcond = icmp eq i64 %indvars.iv.next, 8
  br i1 %exitcond, label %22, label %15, !llvm.loop !179

15:                                               ; preds = %.preheader, %14
  %indvars.iv = phi i64 [ 0, %.preheader ], [ %indvars.iv.next, %14 ]
  %16 = getelementptr inbounds nuw [4 x [8 x [8 x i8]]], ptr %2, i64 0, i64 %indvars.iv53, i64 %indvars.iv, i64 %indvars.iv49
  %17 = load i8, ptr %16, align 1, !tbaa !19
  %18 = zext i8 %17 to i32
  store i32 3, ptr %4, align 4, !tbaa !27
  store i32 %12, ptr %9, align 4, !tbaa !27
  %19 = trunc nuw nsw i64 %indvars.iv to i32
  store i32 %19, ptr %10, align 4, !tbaa !27
  store i32 %13, ptr %11, align 4, !tbaa !27
  %20 = call i32 @ff_cbs_write_unsigned(ptr noundef %0, ptr noundef %1, i32 noundef 8, ptr noundef nonnull @.str.31, ptr noundef nonnull %4, i32 noundef %18, i32 noundef 1, i32 noundef 255) #7
  %21 = icmp sgt i32 %20, -1
  br i1 %21, label %14, label %.loopexit

22:                                               ; preds = %14
  %indvars.iv.next50 = add nuw nsw i64 %indvars.iv49, 1
  %exitcond52 = icmp eq i64 %indvars.iv.next50, 8
  br i1 %exitcond52, label %.thread37, label %.preheader, !llvm.loop !180

.thread37:                                        ; preds = %22
  %indvars.iv.next54 = add nuw nsw i64 %indvars.iv53, 1
  %23 = load i32, ptr %7, align 4, !tbaa !55
  %24 = sext i32 %23 to i64
  %.not = icmp slt i64 %indvars.iv.next54, %24
  br i1 %.not, label %.preheader40, label %.loopexit, !llvm.loop !181

.loopexit:                                        ; preds = %.thread37, %15, %3
  %spec.select = phi i32 [ 0, %3 ], [ %20, %15 ], [ 0, %.thread37 ]
  ret i32 %spec.select
}